; ModuleID = 'source-C-CXX/10/833.c'
source_filename = "source-C-CXX/10/833.c"
target datalayout = "e-m:e-p270:32:32-p271:32:32-p272:64:64-i64:64-f80:128-n8:16:32:64-S128"
target triple = "x86_64-pc-linux-gnu"

%struct._IO_FILE = type { i32, i8*, i8*, i8*, i8*, i8*, i8*, i8*, i8*, i8*, i8*, i8*, %struct._IO_marker*, %struct._IO_FILE*, i32, i32, i64, i16, i8, [1 x i8], i8*, i64, %struct._IO_codecvt*, %struct._IO_wide_data*, %struct._IO_FILE*, i8*, i64, i32, [20 x i8] }
%struct._IO_marker = type opaque
%struct._IO_codecvt = type opaque
%struct._IO_wide_data = type opaque

@__const.main.a = private unnamed_addr constant [12 x i32] [i32 31, i32 28, i32 31, i32 30, i32 31, i32 30, i32 31, i32 31, i32 30, i32 31, i32 30, i32 31], align 16
@.str = private unnamed_addr constant [9 x i8] c"%d %d %d\00", align 1
@.str.1 = private unnamed_addr constant [3 x i8] c"%d\00", align 1
@stdin = external local_unnamed_addr global %struct._IO_FILE*, align 8

; Function Attrs: nofree nounwind sspstrong uwtable
define dso_local i32 @main() local_unnamed_addr #0 {
  %1 = alloca i32, align 4
  %2 = alloca i32, align 4
  %3 = alloca i32, align 4
  %4 = alloca [12 x i32], align 16
  %5 = bitcast i32* %1 to i8*
  call void @llvm.lifetime.start.p0i8(i64 4, i8* nonnull %5) #5
  %6 = bitcast i32* %2 to i8*
  call void @llvm.lifetime.start.p0i8(i64 4, i8* nonnull %6) #5
  %7 = bitcast i32* %3 to i8*
  call void @llvm.lifetime.start.p0i8(i64 4, i8* nonnull %7) #5
  %8 = bitcast [12 x i32]* %4 to i8*
  call void @llvm.lifetime.start.p0i8(i64 48, i8* nonnull %8) #5
  call void @llvm.memcpy.p0i8.p0i8.i64(i8* noundef nonnull align 16 dereferenceable(48) %8, i8* noundef nonnull align 16 dereferenceable(48) bitcast ([12 x i32]* @__const.main.a to i8*), i64 48, i1 false)
  %9 = call i32 (i8*, ...) @__isoc99_scanf(i8* getelementptr inbounds ([9 x i8], [9 x i8]* @.str, i64 0, i64 0), i32* nonnull %1, i32* nonnull %2, i32* nonnull %3)
  %10 = load i32, i32* %1, align 4, !tbaa !5
  %11 = and i32 %10, 3
  %12 = icmp ne i32 %11, 0
  %13 = srem i32 %10, 100
  %14 = icmp eq i32 %13, 0
  %15 = or i1 %12, %14
  br i1 %15, label %18, label %16

16:                                               ; preds = %0
  %17 = getelementptr inbounds [12 x i32], [12 x i32]* %4, i64 0, i64 1
  store i32 29, i32* %17, align 4, !tbaa !5
  br label %18

18:                                               ; preds = %16, %0
  %19 = srem i32 %10, 400
  %20 = icmp eq i32 %19, 0
  br i1 %20, label %21, label %23

21:                                               ; preds = %18
  %22 = getelementptr inbounds [12 x i32], [12 x i32]* %4, i64 0, i64 1
  store i32 29, i32* %22, align 4, !tbaa !5
  br label %23

23:                                               ; preds = %21, %18
  %24 = load i32, i32* %2, align 4, !tbaa !5
  %25 = icmp sgt i32 %24, 1
  br i1 %25, label %26, label %122

26:                                               ; preds = %23
  %27 = add nsw i32 %24, -1
  %28 = zext i32 %27 to i64
  %29 = icmp ult i32 %27, 8
  br i1 %29, label %111, label %30

30:                                               ; preds = %26
  %31 = and i64 %28, 4294967288
  %32 = add nsw i64 %31, -8
  %33 = lshr exact i64 %32, 3
  %34 = add nuw nsw i64 %33, 1
  %35 = and i64 %34, 3
  %36 = icmp ult i64 %32, 24
  br i1 %36, label %82, label %37

37:                                               ; preds = %30
  %38 = and i64 %34, 4611686018427387900
  br label %39

39:                                               ; preds = %39, %37
  %40 = phi i64 [ 0, %37 ], [ %79, %39 ]
  %41 = phi <4 x i32> [ zeroinitializer, %37 ], [ %77, %39 ]
  %42 = phi <4 x i32> [ zeroinitializer, %37 ], [ %78, %39 ]
  %43 = phi i64 [ %38, %37 ], [ %80, %39 ]
  %44 = getelementptr inbounds [12 x i32], [12 x i32]* %4, i64 0, i64 %40
  %45 = bitcast i32* %44 to <4 x i32>*
  %46 = load <4 x i32>, <4 x i32>* %45, align 16, !tbaa !5
  %47 = getelementptr inbounds i32, i32* %44, i64 4
  %48 = bitcast i32* %47 to <4 x i32>*
  %49 = load <4 x i32>, <4 x i32>* %48, align 16, !tbaa !5
  %50 = add <4 x i32> %46, %41
  %51 = add <4 x i32> %49, %42
  %52 = or i64 %40, 8
  %53 = getelementptr inbounds [12 x i32], [12 x i32]* %4, i64 0, i64 %52
  %54 = bitcast i32* %53 to <4 x i32>*
  %55 = load <4 x i32>, <4 x i32>* %54, align 16, !tbaa !5
  %56 = getelementptr inbounds i32, i32* %53, i64 4
  %57 = bitcast i32* %56 to <4 x i32>*
  %58 = load <4 x i32>, <4 x i32>* %57, align 16, !tbaa !5
  %59 = add <4 x i32> %55, %50
  %60 = add <4 x i32> %58, %51
  %61 = or i64 %40, 16
  %62 = getelementptr inbounds [12 x i32], [12 x i32]* %4, i64 0, i64 %61
  %63 = bitcast i32* %62 to <4 x i32>*
  %64 = load <4 x i32>, <4 x i32>* %63, align 16, !tbaa !5
  %65 = getelementptr inbounds i32, i32* %62, i64 4
  %66 = bitcast i32* %65 to <4 x i32>*
  %67 = load <4 x i32>, <4 x i32>* %66, align 16, !tbaa !5
  %68 = add <4 x i32> %64, %59
  %69 = add <4 x i32> %67, %60
  %70 = or i64 %40, 24
  %71 = getelementptr inbounds [12 x i32], [12 x i32]* %4, i64 0, i64 %70
  %72 = bitcast i32* %71 to <4 x i32>*
  %73 = load <4 x i32>, <4 x i32>* %72, align 16, !tbaa !5
  %74 = getelementptr inbounds i32, i32* %71, i64 4
  %75 = bitcast i32* %74 to <4 x i32>*
  %76 = load <4 x i32>, <4 x i32>* %75, align 16, !tbaa !5
  %77 = add <4 x i32> %73, %68
  %78 = add <4 x i32> %76, %69
  %79 = add nuw i64 %40, 32
  %80 = add i64 %43, -4
  %81 = icmp eq i64 %80, 0
  br i1 %81, label %82, label %39, !llvm.loop !9

82:                                               ; preds = %39, %30
  %83 = phi <4 x i32> [ undef, %30 ], [ %77, %39 ]
  %84 = phi <4 x i32> [ undef, %30 ], [ %78, %39 ]
  %85 = phi i64 [ 0, %30 ], [ %79, %39 ]
  %86 = phi <4 x i32> [ zeroinitializer, %30 ], [ %77, %39 ]
  %87 = phi <4 x i32> [ zeroinitializer, %30 ], [ %78, %39 ]
  %88 = icmp eq i64 %35, 0
  br i1 %88, label %105, label %89

89:                                               ; preds = %82, %89
  %90 = phi i64 [ %102, %89 ], [ %85, %82 ]
  %91 = phi <4 x i32> [ %100, %89 ], [ %86, %82 ]
  %92 = phi <4 x i32> [ %101, %89 ], [ %87, %82 ]
  %93 = phi i64 [ %103, %89 ], [ %35, %82 ]
  %94 = getelementptr inbounds [12 x i32], [12 x i32]* %4, i64 0, i64 %90
  %95 = bitcast i32* %94 to <4 x i32>*
  %96 = load <4 x i32>, <4 x i32>* %95, align 16, !tbaa !5
  %97 = getelementptr inbounds i32, i32* %94, i64 4
  %98 = bitcast i32* %97 to <4 x i32>*
  %99 = load <4 x i32>, <4 x i32>* %98, align 16, !tbaa !5
  %100 = add <4 x i32> %96, %91
  %101 = add <4 x i32> %99, %92
  %102 = add nuw i64 %90, 8
  %103 = add i64 %93, -1
  %104 = icmp eq i64 %103, 0
  br i1 %104, label %105, label %89, !llvm.loop !12

105:                                              ; preds = %89, %82
  %106 = phi <4 x i32> [ %83, %82 ], [ %100, %89 ]
  %107 = phi <4 x i32> [ %84, %82 ], [ %101, %89 ]
  %108 = add <4 x i32> %107, %106
  %109 = call i32 @llvm.vector.reduce.add.v4i32(<4 x i32> %108)
  %110 = icmp eq i64 %31, %28
  br i1 %110, label %122, label %111

111:                                              ; preds = %26, %105
  %112 = phi i64 [ 0, %26 ], [ %31, %105 ]
  %113 = phi i32 [ 0, %26 ], [ %109, %105 ]
  br label %114

114:                                              ; preds = %111, %114
  %115 = phi i64 [ %120, %114 ], [ %112, %111 ]
  %116 = phi i32 [ %119, %114 ], [ %113, %111 ]
  %117 = getelementptr inbounds [12 x i32], [12 x i32]* %4, i64 0, i64 %115
  %118 = load i32, i32* %117, align 4, !tbaa !5
  %119 = add nsw i32 %118, %116
  %120 = add nuw nsw i64 %115, 1
  %121 = icmp eq i64 %120, %28
  br i1 %121, label %122, label %114, !llvm.loop !14

122:                                              ; preds = %114, %105, %23
  %123 = phi i32 [ 0, %23 ], [ %109, %105 ], [ %119, %114 ]
  %124 = load i32, i32* %3, align 4, !tbaa !5
  %125 = add nsw i32 %124, %123
  %126 = call i32 (i8*, ...) @printf(i8* nonnull dereferenceable(1) getelementptr inbounds ([3 x i8], [3 x i8]* @.str.1, i64 0, i64 0), i32 %125)
  %127 = load %struct._IO_FILE*, %struct._IO_FILE** @stdin, align 8, !tbaa !16
  %128 = call i32 @getc(%struct._IO_FILE* %127) #5
  %129 = load %struct._IO_FILE*, %struct._IO_FILE** @stdin, align 8, !tbaa !16
  %130 = call i32 @getc(%struct._IO_FILE* %129) #5
  call void @llvm.lifetime.end.p0i8(i64 48, i8* nonnull %8) #5
  call void @llvm.lifetime.end.p0i8(i64 4, i8* nonnull %7) #5
  call void @llvm.lifetime.end.p0i8(i64 4, i8* nonnull %6) #5
  call void @llvm.lifetime.end.p0i8(i64 4, i8* nonnull %5) #5
  ret i32 0
}

; Function Attrs: argmemonly mustprogress nofree nosync nounwind willreturn
declare void @llvm.lifetime.start.p0i8(i64 immarg, i8* nocapture) #1

; Function Attrs: argmemonly mustprogress nofree nounwind willreturn
declare void @llvm.memcpy.p0i8.p0i8.i64(i8* noalias nocapture writeonly, i8* noalias nocapture readonly, i64, i1 immarg) #2

; Function Attrs: nofree nounwind
declare noundef i32 @__isoc99_scanf(i8* nocapture noundef readonly, ...) local_unnamed_addr #3

; Function Attrs: nofree nounwind
declare noundef i32 @printf(i8* nocapture noundef readonly, ...) local_unnamed_addr #3

; Function Attrs: argmemonly mustprogress nofree nosync nounwind willreturn
declare void @llvm.lifetime.end.p0i8(i64 immarg, i8* nocapture) #1

; Function Attrs: nofree nounwind
declare noundef i32 @getc(%struct._IO_FILE* nocapture noundef) local_unnamed_addr #3

; Function Attrs: nofree nosync nounwind readnone willreturn
declare i32 @llvm.vector.reduce.add.v4i32(<4 x i32>) #4


!llvm.module.flags = !{!0, !1, !2, !3}
!llvm.ident = !{!4}

!0 = !{i32 1, !"wchar_size", i32 4}
!1 = !{i32 7, !"PIC Level", i32 2}
!2 = !{i32 7, !"PIE Level", i32 2}
!3 = !{i32 7, !"uwtable", i32 1}
!4 = !{!"clang version 13.0.0"}
!5 = !{!6, !6, i64 0}
!6 = !{!"int", !7, i64 0}
!7 = !{!"omnipotent char", !8, i64 0}
!8 = !{!"Simple C/C++ TBAA"}
!9 = distinct !{!9, !10, !11}
!10 = !{!"llvm.loop.mustprogress"}
!11 = !{!"llvm.loop.isvectorized", i32 1}
!12 = distinct !{!12, !13}
!13 = !{!"llvm.loop.unroll.disable"}
!14 = distinct !{!14, !10, !15, !11}
!15 = !{!"llvm.loop.unroll.runtime.disable"}
!16 = !{!17, !17, i64 0}
!17 = !{!"any pointer", !7, i64 0}
